target datalayout = "e-m:e-p270:32:32-p271:32:32-p272:64:64-i64:64-i128:128-f80:128-n8:16:32:64-S128"
target triple = "x86_64-pc-linux-gnu"

%class.ref_vector = type { %class.ref_vector_core }
%class.ref_vector_core = type { %class.ref_manager_wrapper, %class.ptr_vector }
%class.ref_manager_wrapper = type { ptr }
%class.ptr_vector = type { %class.vector }
%class.vector = type { ptr }
%class.small_object_allocator = type { [32 x ptr], [32 x ptr], i64 }
%class.num_occurs = type { ptr, i8, i8, [6 x i8], %class.obj_map.33 }
%class.obj_map.33 = type { %class.core_hashtable.34 }
%class.core_hashtable.34 = type <{ ptr, i32, i32, i32, [4 x i8] }>
%class.ctx_simplify_tactic = type { %class.tactic.base, ptr, %class.params_ref }
%class.tactic.base = type <{ %"class.user_propagator::core", i32 }>
%"class.user_propagator::core" = type { ptr }
%class.params_ref = type { ptr }
%"struct.ctx_simplify_tactic::imp" = type <{ ptr, ptr, %class.small_object_allocator, %class.svector.38, %class.vector.40, i32, i32, %class.goal_num_occurs, %class.mk_simplified_app, i64, i32, i32, i8, [7 x i8] }>
%class.svector.38 = type { %class.vector.39 }
%class.vector.39 = type { ptr }
%class.vector.40 = type { ptr }
%class.goal_num_occurs = type { %class.num_occurs, %class.ref_vector }
%class.mk_simplified_app = type { ptr }

@_ZN19ctx_simplify_tacticC1ER11ast_managerPNS_10simplifierERK10params_ref = hidden unnamed_addr alias void (ptr, ptr, ptr, ptr), ptr @_ZN19ctx_simplify_tacticC2ER11ast_managerPNS_10simplifierERK10params_ref

; Function Attrs: mustprogress uwtable
define hidden noundef ptr @_ZN19ctx_simplify_tactic9translateER11ast_manager(ptr noundef nonnull align 8 dereferenceable(32) %0, ptr noundef nonnull align 8 dereferenceable(976) %1) unnamed_addr #4 align 2 {
  %3 = alloca ptr, align 8
  %4 = alloca ptr, align 8
  store ptr %0, ptr %3, align 8, !tbaa !136
  store ptr %1, ptr %4, align 8, !tbaa !8
  %5 = load ptr, ptr %3, align 8
  %6 = call noalias noundef ptr @_ZN6memory8allocateEm(i64 noundef 32)
  %7 = load ptr, ptr %4, align 8, !tbaa !8
  %8 = getelementptr inbounds nuw %class.ctx_simplify_tactic, ptr %5, i32 0, i32 1
  %9 = load ptr, ptr %8, align 8, !tbaa !138
  %10 = getelementptr inbounds nuw %"struct.ctx_simplify_tactic::imp", ptr %9, i32 0, i32 1
  %11 = load ptr, ptr %10, align 8, !tbaa !149
  %12 = load ptr, ptr %4, align 8, !tbaa !8
  %13 = load ptr, ptr %11, align 8, !tbaa !10
  %14 = getelementptr inbounds ptr, ptr %13, i64 6
  %15 = load ptr, ptr %14, align 8
  %16 = call noundef ptr %15(ptr noundef nonnull align 8 dereferenceable(16) %11, ptr noundef nonnull align 8 dereferenceable(976) %12)
  %17 = getelementptr inbounds nuw %class.ctx_simplify_tactic, ptr %5, i32 0, i32 2
  call void @_ZN19ctx_simplify_tacticC1ER11ast_managerPNS_10simplifierERK10params_ref(ptr noundef nonnull align 8 dereferenceable(32) %6, ptr noundef nonnull align 8 dereferenceable(976) %7, ptr noundef %16, ptr noundef nonnull align 8 dereferenceable(8) %17)
  ret ptr %6
}