; Function Attrs: mustprogress uwtable
define hidden noundef ptr @_ZN19ctx_simplify_tactic9translateER11ast_manager(ptr noundef nonnull align 8 dereferenceable(32) %0, ptr noundef nonnull align 8 dereferenceable(976) %1) unnamed_addr #3 align 2 personality ptr @__gxx_personality_v0 {
  %3 = tail call noalias noundef ptr @_ZN6memory8allocateEm(i64 noundef 32)
  %4 = getelementptr inbounds nuw i8, ptr %0, i64 16
  %5 = load ptr, ptr %4, align 8, !tbaa !86
  %6 = getelementptr inbounds nuw i8, ptr %5, i64 8
  %7 = load ptr, ptr %6, align 8, !tbaa !91
  %8 = load ptr, ptr %7, align 8, !tbaa !3
  %9 = getelementptr inbounds nuw i8, ptr %8, i64 48
  %10 = load ptr, ptr %9, align 8
  %11 = tail call noundef ptr %10(ptr noundef nonnull align 8 dereferenceable(16) %7, ptr noundef nonnull align 8 dereferenceable(976) %1)
  %12 = getelementptr inbounds nuw i8, ptr %0, i64 24
  %13 = getelementptr inbounds nuw i8, ptr %3, i64 8
  store i32 0, ptr %13, align 8, !tbaa !83
  store ptr getelementptr inbounds nuw inrange(-16, 192) (i8, ptr @_ZTV19ctx_simplify_tactic, i64 16), ptr %3, align 8, !tbaa !3
  %14 = getelementptr inbounds nuw i8, ptr %3, i64 16
  %15 = tail call noalias noundef ptr @_ZN6memory8allocateEm(i64 noundef 648)
  tail call void @_ZN19ctx_simplify_tactic3impC2ER11ast_managerPNS_10simplifierERK10params_ref(ptr noundef nonnull align 8 dereferenceable(641) %15, ptr noundef nonnull align 8 dereferenceable(976) %1, ptr noundef %11, ptr noundef nonnull align 8 dereferenceable(8) %12)
  store ptr %15, ptr %14, align 8, !tbaa !86
  %16 = getelementptr inbounds nuw i8, ptr %3, i64 24
  tail call void @_ZN10params_refC1ERKS_(ptr noundef nonnull align 8 dereferenceable(8) %16, ptr noundef nonnull align 8 dereferenceable(8) %12)
  ret ptr %3
}